target datalayout = "e-m:e-p270:32:32-p271:32:32-p272:64:64-i64:64-i128:128-f80:128-n8:16:32:64-S128"
target triple = "x86_64-pc-linux-gnu"

%struct.AVCodecParser = type { [7 x i32], i32, ptr, ptr, ptr, ptr }
%struct.AVCodecParserContext = type { ptr, ptr, i64, i64, i64, i32, i32, i64, i64, i64, i64, i32, i32, [4 x i64], [4 x i64], [4 x i64], i32, i64, [4 x i64], i32, i32, i32, i32, [4 x i64], i64, i64, i32, i32, i32, i32, i32, i32, i32, i32, i32 }
%struct.G729ParseContext = type { %struct.ParseContext, i32, i32, i32 }
%struct.ParseContext = type { ptr, i32, i32, i32, i32, i32, i32, i32, i64 }
%struct.AVCodecContext = type { ptr, i32, i32, ptr, i32, i32, ptr, ptr, ptr, i64, i32, i32, ptr, i32, %struct.AVRational, %struct.AVRational, %struct.AVRational, i32, i32, i32, i32, i32, %struct.AVRational, i32, i32, i32, i32, i32, i32, i32, i32, i32, i32, i32, ptr, ptr, i32, float, float, float, float, float, float, float, float, float, i32, i32, i32, i32, i32, i32, i32, i32, i32, i32, i32, i32, ptr, ptr, ptr, i32, i32, i32, i32, i32, i32, i32, i32, i32, i32, %struct.AVChannelLayout, i32, i32, i32, i32, i32, i32, i32, i32, ptr, i32, i32, i32, float, float, i32, i32, i32, i32, i32, ptr, i64, i64, float, float, i32, i32, ptr, ptr, i32, i32, i32, i32, i32, ptr, ptr, ptr, ptr, i32, i32, [8 x i64], i32, i32, i32, i32, i32, i32, i32, ptr, ptr, i32, i32, i32, i32, i32, i32, i32, i32, i32, i32, ptr, ptr, i32, i32, ptr, ptr, ptr, ptr, i32, i32, i64, i32, i32, i64, ptr, i64, ptr, i32, ptr, i32 }
%struct.AVRational = type { i32, i32 }
%struct.AVChannelLayout = type { i32, i32, %union.anon, ptr }
%union.anon = type { i64 }

@ff_g729_parser = constant %struct.AVCodecParser { [7 x i32] [i32 86069, i32 86106, i32 0, i32 0, i32 0, i32 0, i32 0], i32 64, ptr null, ptr @g729_parse, ptr @ff_parse_close, ptr null }, align 8

; Function Attrs: nounwind uwtable
define internal i32 @g729_parse(ptr noundef %0, ptr noundef %1, ptr noundef %2, ptr noundef %3, ptr noundef %4, i32 noundef %5) #0 {
  %7 = alloca i32, align 4
  %8 = alloca ptr, align 8
  %9 = alloca ptr, align 8
  %10 = alloca ptr, align 8
  %11 = alloca ptr, align 8
  %12 = alloca ptr, align 8
  %13 = alloca i32, align 4
  %14 = alloca ptr, align 8
  %15 = alloca ptr, align 8
  %16 = alloca i32, align 4
  %17 = alloca i32, align 4
  store ptr %0, ptr %8, align 8, !tbaa !4
  store ptr %1, ptr %9, align 8, !tbaa !9
  store ptr %2, ptr %10, align 8, !tbaa !11
  store ptr %3, ptr %11, align 8, !tbaa !14
  store ptr %4, ptr %12, align 8, !tbaa !16
  store i32 %5, ptr %13, align 4, !tbaa !18
  call void @llvm.lifetime.start.p0(i64 8, ptr %14) #3
  %18 = load ptr, ptr %8, align 8, !tbaa !4
  %19 = getelementptr inbounds nuw %struct.AVCodecParserContext, ptr %18, i32 0, i32 0
  %20 = load ptr, ptr %19, align 8, !tbaa !20
  store ptr %20, ptr %14, align 8, !tbaa !24
  call void @llvm.lifetime.start.p0(i64 8, ptr %15) #3
  %21 = load ptr, ptr %14, align 8, !tbaa !24
  %22 = getelementptr inbounds nuw %struct.G729ParseContext, ptr %21, i32 0, i32 0
  store ptr %22, ptr %15, align 8, !tbaa !26
  call void @llvm.lifetime.start.p0(i64 4, ptr %16) #3
  %23 = load ptr, ptr %14, align 8, !tbaa !24
  %24 = getelementptr inbounds nuw %struct.G729ParseContext, ptr %23, i32 0, i32 1
  %25 = load i32, ptr %24, align 8, !tbaa !28
  %26 = icmp ne i32 %25, 0
  br i1 %26, label %67, label %27

27:                                               ; preds = %6
  %28 = load ptr, ptr %9, align 8, !tbaa !9
  %29 = getelementptr inbounds nuw %struct.AVCodecContext, ptr %28, i32 0, i32 9
  %30 = load i64, ptr %29, align 8, !tbaa !31
  %31 = icmp slt i64 %30, 8000
  %32 = select i1 %31, i32 8, i32 10
  %33 = load ptr, ptr %14, align 8, !tbaa !24
  %34 = getelementptr inbounds nuw %struct.G729ParseContext, ptr %33, i32 0, i32 1
  store i32 %32, ptr %34, align 8, !tbaa !28
  %35 = load ptr, ptr %9, align 8, !tbaa !9
  %36 = getelementptr inbounds nuw %struct.AVCodecContext, ptr %35, i32 0, i32 4
  %37 = load i32, ptr %36, align 8, !tbaa !46
  %38 = icmp eq i32 %37, 86106
  br i1 %38, label %39, label %44

39:                                               ; preds = %27
  %40 = load ptr, ptr %14, align 8, !tbaa !24
  %41 = getelementptr inbounds nuw %struct.G729ParseContext, ptr %40, i32 0, i32 1
  %42 = load i32, ptr %41, align 8, !tbaa !28
  %43 = add nsw i32 %42, 1
  store i32 %43, ptr %41, align 8, !tbaa !28
  br label %44

44:                                               ; preds = %39, %27
  %45 = load ptr, ptr %9, align 8, !tbaa !9
  %46 = getelementptr inbounds nuw %struct.AVCodecContext, ptr %45, i32 0, i32 71
  %47 = getelementptr inbounds nuw %struct.AVChannelLayout, ptr %46, i32 0, i32 1
  %48 = load i32, ptr %47, align 4, !tbaa !47
  %49 = icmp sgt i32 %48, 2
  br i1 %49, label %50, label %53

50:                                               ; preds = %44
  %51 = load ptr, ptr %14, align 8, !tbaa !24
  %52 = getelementptr inbounds nuw %struct.G729ParseContext, ptr %51, i32 0, i32 1
  store i32 0, ptr %52, align 8, !tbaa !28
  br label %53

53:                                               ; preds = %50, %44
  %54 = load ptr, ptr %9, align 8, !tbaa !9
  %55 = getelementptr inbounds nuw %struct.AVCodecContext, ptr %54, i32 0, i32 71
  %56 = getelementptr inbounds nuw %struct.AVChannelLayout, ptr %55, i32 0, i32 1
  %57 = load i32, ptr %56, align 4, !tbaa !47
  %58 = load ptr, ptr %14, align 8, !tbaa !24
  %59 = getelementptr inbounds nuw %struct.G729ParseContext, ptr %58, i32 0, i32 1
  %60 = load i32, ptr %59, align 8, !tbaa !28
  %61 = mul nsw i32 %60, %57
  store i32 %61, ptr %59, align 8, !tbaa !28
  %62 = load ptr, ptr %9, align 8, !tbaa !9
  %63 = getelementptr inbounds nuw %struct.AVCodecContext, ptr %62, i32 0, i32 72
  %64 = load i32, ptr %63, align 8, !tbaa !48
  %65 = load ptr, ptr %14, align 8, !tbaa !24
  %66 = getelementptr inbounds nuw %struct.G729ParseContext, ptr %65, i32 0, i32 2
  store i32 %64, ptr %66, align 4, !tbaa !49
  br label %67

67:                                               ; preds = %53, %6
  %68 = load ptr, ptr %14, align 8, !tbaa !24
  %69 = getelementptr inbounds nuw %struct.G729ParseContext, ptr %68, i32 0, i32 1
  %70 = load i32, ptr %69, align 8, !tbaa !28
  %71 = icmp ne i32 %70, 0
  br i1 %71, label %78, label %72

72:                                               ; preds = %67
  %73 = load ptr, ptr %12, align 8, !tbaa !16
  %74 = load ptr, ptr %10, align 8, !tbaa !11
  store ptr %73, ptr %74, align 8, !tbaa !16
  %75 = load i32, ptr %13, align 4, !tbaa !18
  %76 = load ptr, ptr %11, align 8, !tbaa !14
  store i32 %75, ptr %76, align 4, !tbaa !18
  %77 = load i32, ptr %13, align 4, !tbaa !18
  store i32 %77, ptr %7, align 4
  store i32 1, ptr %17, align 4
  br label %130

78:                                               ; preds = %67
  %79 = load ptr, ptr %14, align 8, !tbaa !24
  %80 = getelementptr inbounds nuw %struct.G729ParseContext, ptr %79, i32 0, i32 3
  %81 = load i32, ptr %80, align 8, !tbaa !50
  %82 = icmp ne i32 %81, 0
  br i1 %82, label %89, label %83

83:                                               ; preds = %78
  %84 = load ptr, ptr %14, align 8, !tbaa !24
  %85 = getelementptr inbounds nuw %struct.G729ParseContext, ptr %84, i32 0, i32 1
  %86 = load i32, ptr %85, align 8, !tbaa !28
  %87 = load ptr, ptr %14, align 8, !tbaa !24
  %88 = getelementptr inbounds nuw %struct.G729ParseContext, ptr %87, i32 0, i32 3
  store i32 %86, ptr %88, align 8, !tbaa !50
  br label %89

89:                                               ; preds = %83, %78
  %90 = load ptr, ptr %14, align 8, !tbaa !24
  %91 = getelementptr inbounds nuw %struct.G729ParseContext, ptr %90, i32 0, i32 3
  %92 = load i32, ptr %91, align 8, !tbaa !50
  %93 = load i32, ptr %13, align 4, !tbaa !18
  %94 = icmp sle i32 %92, %93
  br i1 %94, label %95, label %101

95:                                               ; preds = %89
  %96 = load ptr, ptr %14, align 8, !tbaa !24
  %97 = getelementptr inbounds nuw %struct.G729ParseContext, ptr %96, i32 0, i32 3
  %98 = load i32, ptr %97, align 8, !tbaa !50
  store i32 %98, ptr %16, align 4, !tbaa !18
  %99 = load ptr, ptr %14, align 8, !tbaa !24
  %100 = getelementptr inbounds nuw %struct.G729ParseContext, ptr %99, i32 0, i32 3
  store i32 0, ptr %100, align 8, !tbaa !50
  br label %107

101:                                              ; preds = %89
  store i32 -100, ptr %16, align 4, !tbaa !18
  %102 = load i32, ptr %13, align 4, !tbaa !18
  %103 = load ptr, ptr %14, align 8, !tbaa !24
  %104 = getelementptr inbounds nuw %struct.G729ParseContext, ptr %103, i32 0, i32 3
  %105 = load i32, ptr %104, align 8, !tbaa !50
  %106 = sub nsw i32 %105, %102
  store i32 %106, ptr %104, align 8, !tbaa !50
  br label %107

107:                                              ; preds = %101, %95
  %108 = load ptr, ptr %15, align 8, !tbaa !26
  %109 = load i32, ptr %16, align 4, !tbaa !18
  %110 = call i32 @ff_combine_frame(ptr noundef %108, i32 noundef %109, ptr noundef %12, ptr noundef %13)
  %111 = icmp slt i32 %110, 0
  br i1 %111, label %115, label %112

112:                                              ; preds = %107
  %113 = load i32, ptr %13, align 4, !tbaa !18
  %114 = icmp ne i32 %113, 0
  br i1 %114, label %119, label %115

115:                                              ; preds = %112, %107
  %116 = load ptr, ptr %10, align 8, !tbaa !11
  store ptr null, ptr %116, align 8, !tbaa !16
  %117 = load ptr, ptr %11, align 8, !tbaa !14
  store i32 0, ptr %117, align 4, !tbaa !18
  %118 = load i32, ptr %13, align 4, !tbaa !18
  store i32 %118, ptr %7, align 4
  store i32 1, ptr %17, align 4
  br label %130

119:                                              ; preds = %112
  %120 = load ptr, ptr %14, align 8, !tbaa !24
  %121 = getelementptr inbounds nuw %struct.G729ParseContext, ptr %120, i32 0, i32 2
  %122 = load i32, ptr %121, align 4, !tbaa !49
  %123 = load ptr, ptr %8, align 8, !tbaa !4
  %124 = getelementptr inbounds nuw %struct.AVCodecParserContext, ptr %123, i32 0, i32 26
  store i32 %122, ptr %124, align 8, !tbaa !51
  %125 = load ptr, ptr %12, align 8, !tbaa !16
  %126 = load ptr, ptr %10, align 8, !tbaa !11
  store ptr %125, ptr %126, align 8, !tbaa !16
  %127 = load i32, ptr %13, align 4, !tbaa !18
  %128 = load ptr, ptr %11, align 8, !tbaa !14
  store i32 %127, ptr %128, align 4, !tbaa !18
  %129 = load i32, ptr %16, align 4, !tbaa !18
  store i32 %129, ptr %7, align 4
  store i32 1, ptr %17, align 4
  br label %130

130:                                              ; preds = %119, %115, %72
  call void @llvm.lifetime.end.p0(i64 4, ptr %16) #3
  call void @llvm.lifetime.end.p0(i64 8, ptr %15) #3
  call void @llvm.lifetime.end.p0(i64 8, ptr %14) #3
  %131 = load i32, ptr %7, align 4
  ret i32 %131
}

declare void @ff_parse_close(ptr noundef) #1

; Function Attrs: nocallback nofree nosync nounwind willreturn memory(argmem: readwrite)
declare void @llvm.lifetime.start.p0(i64 immarg, ptr captures(none)) #2

declare i32 @ff_combine_frame(ptr noundef, i32 noundef, ptr noundef, ptr noundef) #1

; Function Attrs: nocallback nofree nosync nounwind willreturn memory(argmem: readwrite)
declare void @llvm.lifetime.end.p0(i64 immarg, ptr captures(none)) #2


!llvm.module.flags = !{!0, !1, !2, !3}

!0 = !{i32 1, !"wchar_size", i32 4}
!1 = !{i32 8, !"PIC Level", i32 2}
!2 = !{i32 7, !"uwtable", i32 2}
!3 = !{i32 1, !"override-stack-alignment", i32 16}
!4 = !{!5, !5, i64 0}
!5 = !{!"p1 _ZTS20AVCodecParserContext", !6, i64 0}
!6 = !{!"any pointer", !7, i64 0}
!7 = !{!"omnipotent char", !8, i64 0}
!8 = !{!"Simple C/C++ TBAA"}
!9 = !{!10, !10, i64 0}
!10 = !{!"p1 _ZTS14AVCodecContext", !6, i64 0}
!11 = !{!12, !12, i64 0}
!12 = !{!"p2 omnipotent char", !13, i64 0}
!13 = !{!"any p2 pointer", !6, i64 0}
!14 = !{!15, !15, i64 0}
!15 = !{!"p1 int", !6, i64 0}
!16 = !{!17, !17, i64 0}
!17 = !{!"p1 omnipotent char", !6, i64 0}
!18 = !{!19, !19, i64 0}
!19 = !{!"int", !7, i64 0}
!20 = !{!21, !6, i64 0}
!21 = !{!"AVCodecParserContext", !6, i64 0, !22, i64 8, !23, i64 16, !23, i64 24, !23, i64 32, !19, i64 40, !19, i64 44, !23, i64 48, !23, i64 56, !23, i64 64, !23, i64 72, !19, i64 80, !19, i64 84, !7, i64 88, !7, i64 120, !7, i64 152, !19, i64 184, !23, i64 192, !7, i64 200, !19, i64 232, !19, i64 236, !19, i64 240, !19, i64 244, !7, i64 248, !23, i64 280, !23, i64 288, !19, i64 296, !19, i64 300, !19, i64 304, !19, i64 308, !19, i64 312, !19, i64 316, !19, i64 320, !19, i64 324, !19, i64 328}
!22 = !{!"p1 _ZTS13AVCodecParser", !6, i64 0}
!23 = !{!"long", !7, i64 0}
!24 = !{!25, !25, i64 0}
!25 = !{!"p1 _ZTS16G729ParseContext", !6, i64 0}
!26 = !{!27, !27, i64 0}
!27 = !{!"p1 _ZTS12ParseContext", !6, i64 0}
!28 = !{!29, !19, i64 48}
!29 = !{!"G729ParseContext", !30, i64 0, !19, i64 48, !19, i64 52, !19, i64 56}
!30 = !{!"ParseContext", !17, i64 0, !19, i64 8, !19, i64 12, !19, i64 16, !19, i64 20, !19, i64 24, !19, i64 28, !19, i64 32, !23, i64 40}
!31 = !{!32, !23, i64 56}
!32 = !{!"AVCodecContext", !33, i64 0, !19, i64 8, !19, i64 12, !34, i64 16, !19, i64 24, !19, i64 28, !6, i64 32, !35, i64 40, !6, i64 48, !23, i64 56, !19, i64 64, !19, i64 68, !17, i64 72, !19, i64 80, !36, i64 84, !36, i64 92, !36, i64 100, !19, i64 108, !19, i64 112, !19, i64 116, !19, i64 120, !19, i64 124, !36, i64 128, !19, i64 136, !19, i64 140, !19, i64 144, !19, i64 148, !19, i64 152, !19, i64 156, !19, i64 160, !19, i64 164, !19, i64 168, !19, i64 172, !19, i64 176, !6, i64 184, !6, i64 192, !19, i64 200, !37, i64 204, !37, i64 208, !37, i64 212, !37, i64 216, !37, i64 220, !37, i64 224, !37, i64 228, !37, i64 232, !37, i64 236, !19, i64 240, !19, i64 244, !19, i64 248, !19, i64 252, !19, i64 256, !19, i64 260, !19, i64 264, !19, i64 268, !19, i64 272, !19, i64 276, !19, i64 280, !19, i64 284, !38, i64 288, !38, i64 296, !38, i64 304, !19, i64 312, !19, i64 316, !19, i64 320, !19, i64 324, !19, i64 328, !19, i64 332, !19, i64 336, !19, i64 340, !19, i64 344, !19, i64 348, !39, i64 352, !19, i64 376, !19, i64 380, !19, i64 384, !19, i64 388, !19, i64 392, !19, i64 396, !19, i64 400, !19, i64 404, !6, i64 408, !19, i64 416, !19, i64 420, !19, i64 424, !37, i64 428, !37, i64 432, !19, i64 436, !19, i64 440, !19, i64 444, !19, i64 448, !19, i64 452, !40, i64 456, !23, i64 464, !23, i64 472, !37, i64 480, !37, i64 484, !19, i64 488, !19, i64 492, !17, i64 496, !17, i64 504, !19, i64 512, !19, i64 516, !19, i64 520, !19, i64 524, !19, i64 528, !41, i64 536, !6, i64 544, !42, i64 552, !42, i64 560, !19, i64 568, !19, i64 572, !7, i64 576, !19, i64 640, !19, i64 644, !19, i64 648, !19, i64 652, !19, i64 656, !19, i64 660, !19, i64 664, !6, i64 672, !6, i64 680, !19, i64 688, !19, i64 692, !19, i64 696, !19, i64 700, !19, i64 704, !19, i64 708, !19, i64 712, !19, i64 716, !19, i64 720, !19, i64 724, !43, i64 728, !17, i64 736, !19, i64 744, !19, i64 748, !17, i64 752, !17, i64 760, !17, i64 768, !44, i64 776, !19, i64 784, !19, i64 788, !23, i64 792, !19, i64 800, !19, i64 804, !23, i64 808, !6, i64 816, !23, i64 824, !15, i64 832, !19, i64 840, !45, i64 848, !19, i64 856}
!33 = !{!"p1 _ZTS7AVClass", !6, i64 0}
!34 = !{!"p1 _ZTS7AVCodec", !6, i64 0}
!35 = !{!"p1 _ZTS15AVCodecInternal", !6, i64 0}
!36 = !{!"AVRational", !19, i64 0, !19, i64 4}
!37 = !{!"float", !7, i64 0}
!38 = !{!"p1 short", !6, i64 0}
!39 = !{!"AVChannelLayout", !19, i64 0, !19, i64 4, !7, i64 8, !6, i64 16}
!40 = !{!"p1 _ZTS10RcOverride", !6, i64 0}
!41 = !{!"p1 _ZTS9AVHWAccel", !6, i64 0}
!42 = !{!"p1 _ZTS11AVBufferRef", !6, i64 0}
!43 = !{!"p1 _ZTS17AVCodecDescriptor", !6, i64 0}
!44 = !{!"p1 _ZTS16AVPacketSideData", !6, i64 0}
!45 = !{!"p2 _ZTS15AVFrameSideData", !13, i64 0}
!46 = !{!32, !19, i64 24}
!47 = !{!32, !19, i64 356}
!48 = !{!32, !19, i64 376}
!49 = !{!29, !19, i64 52}
!50 = !{!29, !19, i64 56}
!51 = !{!21, !19, i64 296}
